; Function Attrs: mustprogress uwtable
define hidden void @_ZN2bv5slice10process_eqEP4expr(ptr noundef nonnull align 8 dereferenceable(112) %0, ptr noundef readonly captures(none) %1) local_unnamed_addr #3 align 2 {
  %3 = getelementptr inbounds nuw i8, ptr %1, i64 4
  %4 = load i32, ptr %3, align 4
  %5 = and i32 %4, 65535
  %6 = icmp eq i32 %5, 0
  br i1 %6, label %7, label %_ZNK11ast_manager5is_eqEPK4exprRPS0_S4_.exit.thread

7:                                                ; preds = %2
  %8 = getelementptr inbounds nuw i8, ptr %1, i64 16
  %9 = load ptr, ptr %8, align 8, !tbaa !81
  %10 = getelementptr inbounds nuw i8, ptr %9, i64 24
  %11 = load ptr, ptr %10, align 8, !tbaa !94
  %.not.i.i.i.i.i = icmp eq ptr %11, null
  br i1 %.not.i.i.i.i.i, label %_ZNK11ast_manager5is_eqEPK4exprRPS0_S4_.exit.thread, label %_ZNK11ast_manager5is_eqEPK4expr.exit.i

_ZNK11ast_manager5is_eqEPK4expr.exit.i:           ; preds = %7
  %12 = load i32, ptr %11, align 8, !tbaa !119
  %13 = icmp eq i32 %12, 0
  %14 = getelementptr inbounds nuw i8, ptr %11, i64 4
  %15 = load i32, ptr %14, align 4
  %16 = icmp eq i32 %15, 2
  %17 = select i1 %13, i1 %16, i1 false
  br i1 %17, label %18, label %_ZNK11ast_manager5is_eqEPK4exprRPS0_S4_.exit.thread

18:                                               ; preds = %_ZNK11ast_manager5is_eqEPK4expr.exit.i
  %19 = getelementptr inbounds nuw i8, ptr %1, i64 24
  %20 = load i32, ptr %19, align 8, !tbaa !76
  %21 = icmp eq i32 %20, 2
  br i1 %21, label %22, label %_ZNK11ast_manager5is_eqEPK4exprRPS0_S4_.exit.thread

22:                                               ; preds = %18
  %23 = getelementptr inbounds nuw i8, ptr %1, i64 32
  %24 = load ptr, ptr %23, align 8, !tbaa !41
  %25 = getelementptr inbounds nuw i8, ptr %1, i64 40
  %26 = load ptr, ptr %25, align 8, !tbaa !41
  %27 = getelementptr inbounds nuw i8, ptr %0, i64 32
  %28 = tail call noundef ptr @_ZNK4expr8get_sortEv(ptr noundef nonnull align 4 dereferenceable(16) %24)
  %29 = tail call noundef zeroext i1 @_ZNK14bv_recognizers10is_bv_sortEPK4sort(ptr noundef nonnull align 4 dereferenceable(4) %27, ptr noundef %28)
  br i1 %29, label %30, label %_ZNK11ast_manager5is_eqEPK4exprRPS0_S4_.exit.thread

30:                                               ; preds = %22
  %31 = getelementptr inbounds nuw i8, ptr %0, i64 96
  %32 = load ptr, ptr %31, align 8, !tbaa !51
  %.not.i = icmp eq ptr %32, null
  br i1 %.not.i, label %_ZN6vectorIP4exprLb0EjE5resetEv.exit, label %33

33:                                               ; preds = %30
  %34 = getelementptr inbounds i8, ptr %32, i64 -4
  store i32 0, ptr %34, align 4, !tbaa !54
  br label %_ZN6vectorIP4exprLb0EjE5resetEv.exit

_ZN6vectorIP4exprLb0EjE5resetEv.exit:             ; preds = %30, %33
  %35 = getelementptr inbounds nuw i8, ptr %0, i64 104
  %36 = load ptr, ptr %35, align 8, !tbaa !51
  %.not.i2 = icmp eq ptr %36, null
  br i1 %.not.i2, label %_ZN6vectorIP4exprLb0EjE5resetEv.exit3, label %37

37:                                               ; preds = %_ZN6vectorIP4exprLb0EjE5resetEv.exit
  %38 = getelementptr inbounds i8, ptr %36, i64 -4
  store i32 0, ptr %38, align 4, !tbaa !54
  br label %_ZN6vectorIP4exprLb0EjE5resetEv.exit3

_ZN6vectorIP4exprLb0EjE5resetEv.exit3:            ; preds = %_ZN6vectorIP4exprLb0EjE5resetEv.exit, %37
  tail call void @_ZN2bv5slice11get_concatsEP4exprR10ptr_vectorIS1_E(ptr noundef nonnull align 8 dereferenceable(112) %0, ptr noundef nonnull %24, ptr noundef nonnull align 8 dereferenceable(8) %31)
  tail call void @_ZN2bv5slice11get_concatsEP4exprR10ptr_vectorIS1_E(ptr noundef nonnull align 8 dereferenceable(112) %0, ptr noundef %26, ptr noundef nonnull align 8 dereferenceable(8) %35)
  tail call void @_ZN2bv5slice8slice_eqEv(ptr noundef nonnull align 8 dereferenceable(112) %0)
  br label %_ZNK11ast_manager5is_eqEPK4exprRPS0_S4_.exit.thread

_ZNK11ast_manager5is_eqEPK4exprRPS0_S4_.exit.thread: ; preds = %7, %2, %_ZNK11ast_manager5is_eqEPK4expr.exit.i, %18, %22, %_ZN6vectorIP4exprLb0EjE5resetEv.exit3
  ret void
}